; ModuleID = 'source-C-CXX/33/3546.cpp'
source_filename = "source-C-CXX/33/3546.cpp"
target datalayout = "e-m:e-p270:32:32-p271:32:32-p272:64:64-i64:64-f80:128-n8:16:32:64-S128"
target triple = "x86_64-pc-linux-gnu"

%"class.std::ios_base::Init" = type { i8 }
%"class.std::basic_istream" = type { i32 (...)**, i64, %"class.std::basic_ios" }
%"class.std::basic_ios" = type { %"class.std::ios_base", %"class.std::basic_ostream"*, i8, i8, %"class.std::basic_streambuf"*, %"class.std::ctype"*, %"class.std::num_put"*, %"class.std::num_get"* }
%"class.std::ios_base" = type { i32 (...)**, i64, i64, i32, i32, i32, %"struct.std::ios_base::_Callback_list"*, %"struct.std::ios_base::_Words", [8 x %"struct.std::ios_base::_Words"], i32, %"struct.std::ios_base::_Words"*, %"class.std::locale" }
%"struct.std::ios_base::_Callback_list" = type { %"struct.std::ios_base::_Callback_list"*, void (i32, %"class.std::ios_base"*, i32)*, i32, i32 }
%"struct.std::ios_base::_Words" = type { i8*, i64 }
%"class.std::locale" = type { %"class.std::locale::_Impl"* }
%"class.std::locale::_Impl" = type { i32, %"class.std::locale::facet"**, i64, %"class.std::locale::facet"**, i8** }
%"class.std::locale::facet" = type <{ i32 (...)**, i32, [4 x i8] }>
%"class.std::basic_ostream" = type { i32 (...)**, %"class.std::basic_ios" }
%"class.std::basic_streambuf" = type { i32 (...)**, i8*, i8*, i8*, i8*, i8*, i8*, %"class.std::locale" }
%"class.std::ctype" = type <{ %"class.std::locale::facet.base", [4 x i8], %struct.__locale_struct*, i8, [7 x i8], i32*, i32*, i16*, i8, [256 x i8], [256 x i8], i8, [6 x i8] }>
%"class.std::locale::facet.base" = type <{ i32 (...)**, i32 }>
%struct.__locale_struct = type { [13 x %struct.__locale_data*], i16*, i32*, i32*, [13 x i8*] }
%struct.__locale_data = type opaque
%"class.std::num_put" = type { %"class.std::locale::facet.base", [4 x i8] }
%"class.std::num_get" = type { %"class.std::locale::facet.base", [4 x i8] }

@_ZStL8__ioinit = internal global %"class.std::ios_base::Init" zeroinitializer, align 1
@__dso_handle = external hidden global i8
@_ZSt3cin = external global %"class.std::basic_istream", align 8
@_ZSt4cout = external global %"class.std::basic_ostream", align 8
@.str = private unnamed_addr constant [4 x i8] c"End\00", align 1
@.str.1 = private unnamed_addr constant [2 x i8] c"*\00", align 1
@.str.2 = private unnamed_addr constant [2 x i8] c"+\00", align 1
@.str.3 = private unnamed_addr constant [2 x i8] c"=\00", align 1
@.str.4 = private unnamed_addr constant [2 x i8] c"/\00", align 1
@llvm.global_ctors = appending global [1 x { i32, void ()*, i8* }] [{ i32, void ()*, i8* } { i32 65535, void ()* @_GLOBAL__sub_I_3546.cpp, i8* null }]

declare void @_ZNSt8ios_base4InitC1Ev(%"class.std::ios_base::Init"* nonnull align 1 dereferenceable(1)) unnamed_addr #0

; Function Attrs: nounwind
declare void @_ZNSt8ios_base4InitD1Ev(%"class.std::ios_base::Init"* nonnull align 1 dereferenceable(1)) unnamed_addr #1

; Function Attrs: nofree nounwind
declare i32 @__cxa_atexit(void (i8*)*, i8*, i8*) local_unnamed_addr #2

; Function Attrs: mustprogress norecurse sspstrong uwtable
define dso_local i32 @main() local_unnamed_addr #3 {
  %1 = alloca i32, align 4
  %2 = bitcast i32* %1 to i8*
  call void @llvm.lifetime.start.p0i8(i64 4, i8* nonnull %2) #8
  %3 = call nonnull align 8 dereferenceable(16) %"class.std::basic_istream"* @_ZNSirsERi(%"class.std::basic_istream"* nonnull align 8 dereferenceable(16) @_ZSt3cin, i32* nonnull align 4 dereferenceable(4) %1)
  %4 = load i32, i32* %1, align 4, !tbaa !5
  call void @_Z6jiaogui(i32 %4)
  call void @llvm.lifetime.end.p0i8(i64 4, i8* nonnull %2) #8
  ret i32 0
}

; Function Attrs: argmemonly mustprogress nofree nosync nounwind willreturn
declare void @llvm.lifetime.start.p0i8(i64 immarg, i8* nocapture) #4

declare nonnull align 8 dereferenceable(16) %"class.std::basic_istream"* @_ZNSirsERi(%"class.std::basic_istream"* nonnull align 8 dereferenceable(16), i32* nonnull align 4 dereferenceable(4)) local_unnamed_addr #0

; Function Attrs: mustprogress sspstrong uwtable
define dso_local void @_Z6jiaogui(i32 %0) local_unnamed_addr #5 {
  %2 = icmp eq i32 %0, 1
  br i1 %2, label %3, label %32

3:                                                ; preds = %75, %1
  %4 = tail call nonnull align 8 dereferenceable(8) %"class.std::basic_ostream"* @_ZSt16__ostream_insertIcSt11char_traitsIcEERSt13basic_ostreamIT_T0_ES6_PKS3_l(%"class.std::basic_ostream"* nonnull align 8 dereferenceable(8) @_ZSt4cout, i8* nonnull getelementptr inbounds ([4 x i8], [4 x i8]* @.str, i64 0, i64 0), i64 3)
  %5 = load i8*, i8** bitcast (%"class.std::basic_ostream"* @_ZSt4cout to i8**), align 8, !tbaa !9
  %6 = getelementptr i8, i8* %5, i64 -24
  %7 = bitcast i8* %6 to i64*
  %8 = load i64, i64* %7, align 8
  %9 = add nsw i64 %8, 240
  %10 = getelementptr inbounds i8, i8* bitcast (%"class.std::basic_ostream"* @_ZSt4cout to i8*), i64 %9
  %11 = bitcast i8* %10 to %"class.std::ctype"**
  %12 = load %"class.std::ctype"*, %"class.std::ctype"** %11, align 8, !tbaa !11
  %13 = icmp eq %"class.std::ctype"* %12, null
  br i1 %13, label %14, label %15

14:                                               ; preds = %3
  tail call void @_ZSt16__throw_bad_castv() #9
  unreachable

15:                                               ; preds = %3
  %16 = getelementptr inbounds %"class.std::ctype", %"class.std::ctype"* %12, i64 0, i32 8
  %17 = load i8, i8* %16, align 8, !tbaa !15
  %18 = icmp eq i8 %17, 0
  br i1 %18, label %22, label %19

19:                                               ; preds = %15
  %20 = getelementptr inbounds %"class.std::ctype", %"class.std::ctype"* %12, i64 0, i32 9, i64 10
  %21 = load i8, i8* %20, align 1, !tbaa !17
  br label %28

22:                                               ; preds = %15
  tail call void @_ZNKSt5ctypeIcE13_M_widen_initEv(%"class.std::ctype"* nonnull align 8 dereferenceable(570) %12)
  %23 = bitcast %"class.std::ctype"* %12 to i8 (%"class.std::ctype"*, i8)***
  %24 = load i8 (%"class.std::ctype"*, i8)**, i8 (%"class.std::ctype"*, i8)*** %23, align 8, !tbaa !9
  %25 = getelementptr inbounds i8 (%"class.std::ctype"*, i8)*, i8 (%"class.std::ctype"*, i8)** %24, i64 6
  %26 = load i8 (%"class.std::ctype"*, i8)*, i8 (%"class.std::ctype"*, i8)** %25, align 8
  %27 = tail call signext i8 %26(%"class.std::ctype"* nonnull align 8 dereferenceable(570) %12, i8 signext 10)
  br label %28

28:                                               ; preds = %19, %22
  %29 = phi i8 [ %21, %19 ], [ %27, %22 ]
  %30 = tail call nonnull align 8 dereferenceable(8) %"class.std::basic_ostream"* @_ZNSo3putEc(%"class.std::basic_ostream"* nonnull align 8 dereferenceable(8) @_ZSt4cout, i8 signext %29)
  %31 = tail call nonnull align 8 dereferenceable(8) %"class.std::basic_ostream"* @_ZNSo5flushEv(%"class.std::basic_ostream"* nonnull align 8 dereferenceable(8) %30)
  ret void

32:                                               ; preds = %1, %75
  %33 = phi i32 [ %77, %75 ], [ %0, %1 ]
  %34 = srem i32 %33, 2
  %35 = sdiv i32 %33, 2
  %36 = icmp eq i32 %34, 1
  %37 = tail call nonnull align 8 dereferenceable(8) %"class.std::basic_ostream"* @_ZNSolsEi(%"class.std::basic_ostream"* nonnull align 8 dereferenceable(8) @_ZSt4cout, i32 %33)
  br i1 %36, label %38, label %80

38:                                               ; preds = %32
  %39 = tail call nonnull align 8 dereferenceable(8) %"class.std::basic_ostream"* @_ZSt16__ostream_insertIcSt11char_traitsIcEERSt13basic_ostreamIT_T0_ES6_PKS3_l(%"class.std::basic_ostream"* nonnull align 8 dereferenceable(8) %37, i8* nonnull getelementptr inbounds ([2 x i8], [2 x i8]* @.str.1, i64 0, i64 0), i64 1)
  %40 = tail call nonnull align 8 dereferenceable(8) %"class.std::basic_ostream"* @_ZNSolsEi(%"class.std::basic_ostream"* nonnull align 8 dereferenceable(8) %37, i32 3)
  %41 = tail call nonnull align 8 dereferenceable(8) %"class.std::basic_ostream"* @_ZSt16__ostream_insertIcSt11char_traitsIcEERSt13basic_ostreamIT_T0_ES6_PKS3_l(%"class.std::basic_ostream"* nonnull align 8 dereferenceable(8) %40, i8* nonnull getelementptr inbounds ([2 x i8], [2 x i8]* @.str.2, i64 0, i64 0), i64 1)
  %42 = tail call nonnull align 8 dereferenceable(8) %"class.std::basic_ostream"* @_ZNSolsEi(%"class.std::basic_ostream"* nonnull align 8 dereferenceable(8) %40, i32 1)
  %43 = tail call nonnull align 8 dereferenceable(8) %"class.std::basic_ostream"* @_ZSt16__ostream_insertIcSt11char_traitsIcEERSt13basic_ostreamIT_T0_ES6_PKS3_l(%"class.std::basic_ostream"* nonnull align 8 dereferenceable(8) %42, i8* nonnull getelementptr inbounds ([2 x i8], [2 x i8]* @.str.3, i64 0, i64 0), i64 1)
  %44 = mul nsw i32 %33, 3
  %45 = add nsw i32 %44, 1
  %46 = tail call nonnull align 8 dereferenceable(8) %"class.std::basic_ostream"* @_ZNSolsEi(%"class.std::basic_ostream"* nonnull align 8 dereferenceable(8) %42, i32 %45)
  %47 = bitcast %"class.std::basic_ostream"* %46 to i8**
  %48 = load i8*, i8** %47, align 8, !tbaa !9
  %49 = getelementptr i8, i8* %48, i64 -24
  %50 = bitcast i8* %49 to i64*
  %51 = load i64, i64* %50, align 8
  %52 = bitcast %"class.std::basic_ostream"* %46 to i8*
  %53 = add nsw i64 %51, 240
  %54 = getelementptr inbounds i8, i8* %52, i64 %53
  %55 = bitcast i8* %54 to %"class.std::ctype"**
  %56 = load %"class.std::ctype"*, %"class.std::ctype"** %55, align 8, !tbaa !11
  %57 = icmp eq %"class.std::ctype"* %56, null
  br i1 %57, label %58, label %59

58:                                               ; preds = %38
  tail call void @_ZSt16__throw_bad_castv() #9
  unreachable

59:                                               ; preds = %38
  %60 = getelementptr inbounds %"class.std::ctype", %"class.std::ctype"* %56, i64 0, i32 8
  %61 = load i8, i8* %60, align 8, !tbaa !15
  %62 = icmp eq i8 %61, 0
  br i1 %62, label %66, label %63

63:                                               ; preds = %59
  %64 = getelementptr inbounds %"class.std::ctype", %"class.std::ctype"* %56, i64 0, i32 9, i64 10
  %65 = load i8, i8* %64, align 1, !tbaa !17
  br label %72

66:                                               ; preds = %59
  tail call void @_ZNKSt5ctypeIcE13_M_widen_initEv(%"class.std::ctype"* nonnull align 8 dereferenceable(570) %56)
  %67 = bitcast %"class.std::ctype"* %56 to i8 (%"class.std::ctype"*, i8)***
  %68 = load i8 (%"class.std::ctype"*, i8)**, i8 (%"class.std::ctype"*, i8)*** %67, align 8, !tbaa !9
  %69 = getelementptr inbounds i8 (%"class.std::ctype"*, i8)*, i8 (%"class.std::ctype"*, i8)** %68, i64 6
  %70 = load i8 (%"class.std::ctype"*, i8)*, i8 (%"class.std::ctype"*, i8)** %69, align 8
  %71 = tail call signext i8 %70(%"class.std::ctype"* nonnull align 8 dereferenceable(570) %56, i8 signext 10)
  br label %72

72:                                               ; preds = %63, %66
  %73 = phi i8 [ %65, %63 ], [ %71, %66 ]
  %74 = tail call nonnull align 8 dereferenceable(8) %"class.std::basic_ostream"* @_ZNSo3putEc(%"class.std::basic_ostream"* nonnull align 8 dereferenceable(8) %46, i8 signext %73)
  br label %75

75:                                               ; preds = %72, %110
  %76 = phi %"class.std::basic_ostream"* [ %74, %72 ], [ %112, %110 ]
  %77 = phi i32 [ %45, %72 ], [ %35, %110 ]
  %78 = tail call nonnull align 8 dereferenceable(8) %"class.std::basic_ostream"* @_ZNSo5flushEv(%"class.std::basic_ostream"* nonnull align 8 dereferenceable(8) %76)
  %79 = icmp eq i32 %77, 1
  br i1 %79, label %3, label %32

80:                                               ; preds = %32
  %81 = tail call nonnull align 8 dereferenceable(8) %"class.std::basic_ostream"* @_ZSt16__ostream_insertIcSt11char_traitsIcEERSt13basic_ostreamIT_T0_ES6_PKS3_l(%"class.std::basic_ostream"* nonnull align 8 dereferenceable(8) %37, i8* nonnull getelementptr inbounds ([2 x i8], [2 x i8]* @.str.4, i64 0, i64 0), i64 1)
  %82 = tail call nonnull align 8 dereferenceable(8) %"class.std::basic_ostream"* @_ZNSolsEi(%"class.std::basic_ostream"* nonnull align 8 dereferenceable(8) %37, i32 2)
  %83 = tail call nonnull align 8 dereferenceable(8) %"class.std::basic_ostream"* @_ZSt16__ostream_insertIcSt11char_traitsIcEERSt13basic_ostreamIT_T0_ES6_PKS3_l(%"class.std::basic_ostream"* nonnull align 8 dereferenceable(8) %82, i8* nonnull getelementptr inbounds ([2 x i8], [2 x i8]* @.str.3, i64 0, i64 0), i64 1)
  %84 = tail call nonnull align 8 dereferenceable(8) %"class.std::basic_ostream"* @_ZNSolsEi(%"class.std::basic_ostream"* nonnull align 8 dereferenceable(8) %82, i32 %35)
  %85 = bitcast %"class.std::basic_ostream"* %84 to i8**
  %86 = load i8*, i8** %85, align 8, !tbaa !9
  %87 = getelementptr i8, i8* %86, i64 -24
  %88 = bitcast i8* %87 to i64*
  %89 = load i64, i64* %88, align 8
  %90 = bitcast %"class.std::basic_ostream"* %84 to i8*
  %91 = add nsw i64 %89, 240
  %92 = getelementptr inbounds i8, i8* %90, i64 %91
  %93 = bitcast i8* %92 to %"class.std::ctype"**
  %94 = load %"class.std::ctype"*, %"class.std::ctype"** %93, align 8, !tbaa !11
  %95 = icmp eq %"class.std::ctype"* %94, null
  br i1 %95, label %96, label %97

96:                                               ; preds = %80
  tail call void @_ZSt16__throw_bad_castv() #9
  unreachable

97:                                               ; preds = %80
  %98 = getelementptr inbounds %"class.std::ctype", %"class.std::ctype"* %94, i64 0, i32 8
  %99 = load i8, i8* %98, align 8, !tbaa !15
  %100 = icmp eq i8 %99, 0
  br i1 %100, label %104, label %101

101:                                              ; preds = %97
  %102 = getelementptr inbounds %"class.std::ctype", %"class.std::ctype"* %94, i64 0, i32 9, i64 10
  %103 = load i8, i8* %102, align 1, !tbaa !17
  br label %110

104:                                              ; preds = %97
  tail call void @_ZNKSt5ctypeIcE13_M_widen_initEv(%"class.std::ctype"* nonnull align 8 dereferenceable(570) %94)
  %105 = bitcast %"class.std::ctype"* %94 to i8 (%"class.std::ctype"*, i8)***
  %106 = load i8 (%"class.std::ctype"*, i8)**, i8 (%"class.std::ctype"*, i8)*** %105, align 8, !tbaa !9
  %107 = getelementptr inbounds i8 (%"class.std::ctype"*, i8)*, i8 (%"class.std::ctype"*, i8)** %106, i64 6
  %108 = load i8 (%"class.std::ctype"*, i8)*, i8 (%"class.std::ctype"*, i8)** %107, align 8
  %109 = tail call signext i8 %108(%"class.std::ctype"* nonnull align 8 dereferenceable(570) %94, i8 signext 10)
  br label %110

110:                                              ; preds = %101, %104
  %111 = phi i8 [ %103, %101 ], [ %109, %104 ]
  %112 = tail call nonnull align 8 dereferenceable(8) %"class.std::basic_ostream"* @_ZNSo3putEc(%"class.std::basic_ostream"* nonnull align 8 dereferenceable(8) %84, i8 signext %111)
  br label %75
}

; Function Attrs: argmemonly mustprogress nofree nosync nounwind willreturn
declare void @llvm.lifetime.end.p0i8(i64 immarg, i8* nocapture) #4

declare nonnull align 8 dereferenceable(8) %"class.std::basic_ostream"* @_ZNSolsEi(%"class.std::basic_ostream"* nonnull align 8 dereferenceable(8), i32) local_unnamed_addr #0

declare nonnull align 8 dereferenceable(8) %"class.std::basic_ostream"* @_ZSt16__ostream_insertIcSt11char_traitsIcEERSt13basic_ostreamIT_T0_ES6_PKS3_l(%"class.std::basic_ostream"* nonnull align 8 dereferenceable(8), i8*, i64) local_unnamed_addr #0

declare nonnull align 8 dereferenceable(8) %"class.std::basic_ostream"* @_ZNSo3putEc(%"class.std::basic_ostream"* nonnull align 8 dereferenceable(8), i8 signext) local_unnamed_addr #0

declare nonnull align 8 dereferenceable(8) %"class.std::basic_ostream"* @_ZNSo5flushEv(%"class.std::basic_ostream"* nonnull align 8 dereferenceable(8)) local_unnamed_addr #0

; Function Attrs: noreturn
declare void @_ZSt16__throw_bad_castv() local_unnamed_addr #6

declare void @_ZNKSt5ctypeIcE13_M_widen_initEv(%"class.std::ctype"* nonnull align 8 dereferenceable(570)) local_unnamed_addr #0

; Function Attrs: sspstrong uwtable
define internal void @_GLOBAL__sub_I_3546.cpp() #7 section ".text.startup" {
  tail call void @_ZNSt8ios_base4InitC1Ev(%"class.std::ios_base::Init"* nonnull align 1 dereferenceable(1) @_ZStL8__ioinit)
  %1 = tail call i32 @__cxa_atexit(void (i8*)* bitcast (void (%"class.std::ios_base::Init"*)* @_ZNSt8ios_base4InitD1Ev to void (i8*)*), i8* getelementptr inbounds (%"class.std::ios_base::Init", %"class.std::ios_base::Init"* @_ZStL8__ioinit, i64 0, i32 0), i8* nonnull @__dso_handle) #8
  ret void
}


!llvm.module.flags = !{!0, !1, !2, !3}
!llvm.ident = !{!4}

!0 = !{i32 1, !"wchar_size", i32 4}
!1 = !{i32 7, !"PIC Level", i32 2}
!2 = !{i32 7, !"PIE Level", i32 2}
!3 = !{i32 7, !"uwtable", i32 1}
!4 = !{!"clang version 13.0.0"}
!5 = !{!6, !6, i64 0}
!6 = !{!"int", !7, i64 0}
!7 = !{!"omnipotent char", !8, i64 0}
!8 = !{!"Simple C++ TBAA"}
!9 = !{!10, !10, i64 0}
!10 = !{!"vtable pointer", !8, i64 0}
!11 = !{!12, !13, i64 240}
!12 = !{!"_ZTSSt9basic_iosIcSt11char_traitsIcEE", !13, i64 216, !7, i64 224, !14, i64 225, !13, i64 232, !13, i64 240, !13, i64 248, !13, i64 256}
!13 = !{!"any pointer", !7, i64 0}
!14 = !{!"bool", !7, i64 0}
!15 = !{!16, !7, i64 56}
!16 = !{!"_ZTSSt5ctypeIcE", !13, i64 16, !14, i64 24, !13, i64 32, !13, i64 40, !13, i64 48, !7, i64 56, !7, i64 57, !7, i64 313, !7, i64 569}
!17 = !{!7, !7, i64 0}
